target datalayout = "e-m:e-p270:32:32-p271:32:32-p272:64:64-i64:64-i128:128-f80:128-n8:16:32:64-S128"
target triple = "x86_64-pc-linux-gnu"

%struct.FLAC__StreamMetadata = type { i32, i32, i32, %union.anon }
%union.anon = type { %struct.FLAC__StreamMetadata_CueSheet }
%struct.FLAC__StreamMetadata_CueSheet = type { [129 x i8], i64, i32, i32, ptr }
%struct.FLAC__StreamMetadata_CueSheet_Track = type { i64, i8, [13 x i8], i8, i8, ptr }
%struct.FLAC__StreamMetadata_CueSheet_Index = type { i64, i8 }

@FLAC__STREAM_METADATA_CUESHEET_MEDIA_CATALOG_NUMBER_LEN = external constant i32, align 4
@FLAC__STREAM_METADATA_CUESHEET_LEAD_IN_LEN = external constant i32, align 4
@FLAC__STREAM_METADATA_CUESHEET_IS_CD_LEN = external constant i32, align 4
@FLAC__STREAM_METADATA_CUESHEET_RESERVED_LEN = external constant i32, align 4
@FLAC__STREAM_METADATA_CUESHEET_NUM_TRACKS_LEN = external constant i32, align 4
@FLAC__STREAM_METADATA_CUESHEET_TRACK_OFFSET_LEN = external constant i32, align 4
@FLAC__STREAM_METADATA_CUESHEET_TRACK_NUMBER_LEN = external constant i32, align 4
@FLAC__STREAM_METADATA_CUESHEET_TRACK_ISRC_LEN = external constant i32, align 4
@FLAC__STREAM_METADATA_CUESHEET_TRACK_TYPE_LEN = external constant i32, align 4
@FLAC__STREAM_METADATA_CUESHEET_TRACK_PRE_EMPHASIS_LEN = external constant i32, align 4
@FLAC__STREAM_METADATA_CUESHEET_TRACK_RESERVED_LEN = external constant i32, align 4
@FLAC__STREAM_METADATA_CUESHEET_TRACK_NUM_INDICES_LEN = external constant i32, align 4
@FLAC__STREAM_METADATA_CUESHEET_INDEX_OFFSET_LEN = external constant i32, align 4
@FLAC__STREAM_METADATA_CUESHEET_INDEX_NUMBER_LEN = external constant i32, align 4
@FLAC__STREAM_METADATA_CUESHEET_INDEX_RESERVED_LEN = external constant i32, align 4

; Function Attrs: inlinehint nounwind sspstrong uwtable
define internal ptr @safe_calloc_(i64 noundef %0, i64 noundef %1) #9 {
  %3 = alloca ptr, align 8
  %4 = alloca i64, align 8
  %5 = alloca i64, align 8
  store i64 %0, ptr %4, align 8, !tbaa !28
  store i64 %1, ptr %5, align 8, !tbaa !28
  %6 = load i64, ptr %4, align 8, !tbaa !28
  %7 = icmp ne i64 %6, 0
  br i1 %7, label %8, label %11

8:                                                ; preds = %2
  %9 = load i64, ptr %5, align 8, !tbaa !28
  %10 = icmp ne i64 %9, 0
  br i1 %10, label %13, label %11

11:                                               ; preds = %8, %2
  %12 = call noalias ptr @malloc(i64 noundef 1) #16
  store ptr %12, ptr %3, align 8
  br label %17

13:                                               ; preds = %8
  %14 = load i64, ptr %4, align 8, !tbaa !28
  %15 = load i64, ptr %5, align 8, !tbaa !28
  %16 = call noalias ptr @calloc(i64 noundef %14, i64 noundef %15) #13
  store ptr %16, ptr %3, align 8
  br label %17

17:                                               ; preds = %13, %11
  %18 = load ptr, ptr %3, align 8
  ret ptr %18
}

; Function Attrs: nounwind sspstrong uwtable
define internal void @cuesheet_calculate_length_(ptr noundef %0) #0 {
  %2 = alloca ptr, align 8
  %3 = alloca i32, align 4
  store ptr %0, ptr %2, align 8, !tbaa !7
  call void @llvm.lifetime.start.p0(i64 4, ptr %3) #12
  %4 = load i32, ptr @FLAC__STREAM_METADATA_CUESHEET_MEDIA_CATALOG_NUMBER_LEN, align 4, !tbaa !3
  %5 = load i32, ptr @FLAC__STREAM_METADATA_CUESHEET_LEAD_IN_LEN, align 4, !tbaa !3
  %6 = add i32 %4, %5
  %7 = load i32, ptr @FLAC__STREAM_METADATA_CUESHEET_IS_CD_LEN, align 4, !tbaa !3
  %8 = add i32 %6, %7
  %9 = load i32, ptr @FLAC__STREAM_METADATA_CUESHEET_RESERVED_LEN, align 4, !tbaa !3
  %10 = add i32 %8, %9
  %11 = load i32, ptr @FLAC__STREAM_METADATA_CUESHEET_NUM_TRACKS_LEN, align 4, !tbaa !3
  %12 = add i32 %10, %11
  %13 = udiv i32 %12, 8
  %14 = load ptr, ptr %2, align 8, !tbaa !7
  %15 = getelementptr inbounds nuw %struct.FLAC__StreamMetadata, ptr %14, i32 0, i32 2
  store i32 %13, ptr %15, align 8, !tbaa !13
  %16 = load ptr, ptr %2, align 8, !tbaa !7
  %17 = getelementptr inbounds nuw %struct.FLAC__StreamMetadata, ptr %16, i32 0, i32 3
  %18 = getelementptr inbounds nuw %struct.FLAC__StreamMetadata_CueSheet, ptr %17, i32 0, i32 3
  %19 = load i32, ptr %18, align 4, !tbaa !16
  %20 = load i32, ptr @FLAC__STREAM_METADATA_CUESHEET_TRACK_OFFSET_LEN, align 4, !tbaa !3
  %21 = load i32, ptr @FLAC__STREAM_METADATA_CUESHEET_TRACK_NUMBER_LEN, align 4, !tbaa !3
  %22 = add i32 %20, %21
  %23 = load i32, ptr @FLAC__STREAM_METADATA_CUESHEET_TRACK_ISRC_LEN, align 4, !tbaa !3
  %24 = add i32 %22, %23
  %25 = load i32, ptr @FLAC__STREAM_METADATA_CUESHEET_TRACK_TYPE_LEN, align 4, !tbaa !3
  %26 = add i32 %24, %25
  %27 = load i32, ptr @FLAC__STREAM_METADATA_CUESHEET_TRACK_PRE_EMPHASIS_LEN, align 4, !tbaa !3
  %28 = add i32 %26, %27
  %29 = load i32, ptr @FLAC__STREAM_METADATA_CUESHEET_TRACK_RESERVED_LEN, align 4, !tbaa !3
  %30 = add i32 %28, %29
  %31 = load i32, ptr @FLAC__STREAM_METADATA_CUESHEET_TRACK_NUM_INDICES_LEN, align 4, !tbaa !3
  %32 = add i32 %30, %31
  %33 = mul i32 %19, %32
  %34 = udiv i32 %33, 8
  %35 = load ptr, ptr %2, align 8, !tbaa !7
  %36 = getelementptr inbounds nuw %struct.FLAC__StreamMetadata, ptr %35, i32 0, i32 2
  %37 = load i32, ptr %36, align 8, !tbaa !13
  %38 = add i32 %37, %34
  store i32 %38, ptr %36, align 8, !tbaa !13
  store i32 0, ptr %3, align 4, !tbaa !3
  br label %39

39:                                               ; preds = %68, %1
  %40 = load i32, ptr %3, align 4, !tbaa !3
  %41 = load ptr, ptr %2, align 8, !tbaa !7
  %42 = getelementptr inbounds nuw %struct.FLAC__StreamMetadata, ptr %41, i32 0, i32 3
  %43 = getelementptr inbounds nuw %struct.FLAC__StreamMetadata_CueSheet, ptr %42, i32 0, i32 3
  %44 = load i32, ptr %43, align 4, !tbaa !16
  %45 = icmp ult i32 %40, %44
  br i1 %45, label %46, label %71

46:                                               ; preds = %39
  %47 = load ptr, ptr %2, align 8, !tbaa !7
  %48 = getelementptr inbounds nuw %struct.FLAC__StreamMetadata, ptr %47, i32 0, i32 3
  %49 = getelementptr inbounds nuw %struct.FLAC__StreamMetadata_CueSheet, ptr %48, i32 0, i32 4
  %50 = load ptr, ptr %49, align 8, !tbaa !16
  %51 = load i32, ptr %3, align 4, !tbaa !3
  %52 = zext i32 %51 to i64
  %53 = getelementptr inbounds nuw %struct.FLAC__StreamMetadata_CueSheet_Track, ptr %50, i64 %52
  %54 = getelementptr inbounds nuw %struct.FLAC__StreamMetadata_CueSheet_Track, ptr %53, i32 0, i32 4
  %55 = load i8, ptr %54, align 1, !tbaa !23
  %56 = zext i8 %55 to i32
  %57 = load i32, ptr @FLAC__STREAM_METADATA_CUESHEET_INDEX_OFFSET_LEN, align 4, !tbaa !3
  %58 = load i32, ptr @FLAC__STREAM_METADATA_CUESHEET_INDEX_NUMBER_LEN, align 4, !tbaa !3
  %59 = add i32 %57, %58
  %60 = load i32, ptr @FLAC__STREAM_METADATA_CUESHEET_INDEX_RESERVED_LEN, align 4, !tbaa !3
  %61 = add i32 %59, %60
  %62 = mul i32 %56, %61
  %63 = udiv i32 %62, 8
  %64 = load ptr, ptr %2, align 8, !tbaa !7
  %65 = getelementptr inbounds nuw %struct.FLAC__StreamMetadata, ptr %64, i32 0, i32 2
  %66 = load i32, ptr %65, align 8, !tbaa !13
  %67 = add i32 %66, %63
  store i32 %67, ptr %65, align 8, !tbaa !13
  br label %68

68:                                               ; preds = %46
  %69 = load i32, ptr %3, align 4, !tbaa !3
  %70 = add i32 %69, 1
  store i32 %70, ptr %3, align 4, !tbaa !3
  br label %39, !llvm.loop !26

71:                                               ; preds = %39
  call void @llvm.lifetime.end.p0(i64 4, ptr %3) #12
  ret void
}

; Function Attrs: alwaysinline nounwind
define internal ptr @memset.inline(ptr nonnull %0, i32 %1, i64 %2) #5 {
  %4 = alloca ptr, align 8
  %5 = alloca i32, align 4
  %6 = alloca i64, align 8
  store ptr %0, ptr %4, align 8, !tbaa !27
  store i32 %1, ptr %5, align 4, !tbaa !3
  store i64 %2, ptr %6, align 8, !tbaa !28
  %7 = load ptr, ptr %4, align 8, !tbaa !27
  %8 = load i32, ptr %5, align 4, !tbaa !3
  %9 = load i64, ptr %6, align 8, !tbaa !28
  %10 = load ptr, ptr %4, align 8, !tbaa !27
  %11 = call i64 @llvm.objectsize.i64.p0(ptr %10, i1 false, i1 true, i1 false)
  %12 = call ptr @__memset_chk(ptr noundef %7, i32 noundef %8, i64 noundef %9, i64 noundef %11) #12
  ret ptr %12
}

; Function Attrs: nounwind sspstrong uwtable
define internal ptr @cuesheet_track_index_array_new_(i32 noundef %0) #0 {
  %2 = alloca i32, align 4
  store i32 %0, ptr %2, align 4, !tbaa !3
  %3 = load i32, ptr %2, align 4, !tbaa !3
  %4 = zext i32 %3 to i64
  %5 = call ptr @safe_calloc_(i64 noundef %4, i64 noundef 16)
  ret ptr %5
}

; Function Attrs: nounwind sspstrong uwtable
define i32 @FLAC__metadata_object_cuesheet_track_resize_indices(ptr noundef %0, i32 noundef %1, i32 noundef %2) #0 {
  %4 = alloca i32, align 4
  %5 = alloca ptr, align 8
  %6 = alloca i32, align 4
  %7 = alloca i32, align 4
  %8 = alloca ptr, align 8
  %9 = alloca i32, align 4
  %10 = alloca i64, align 8
  %11 = alloca i64, align 8
  %12 = alloca ptr, align 8
  store ptr %0, ptr %5, align 8, !tbaa !7
  store i32 %1, ptr %6, align 4, !tbaa !3
  store i32 %2, ptr %7, align 4, !tbaa !3
  call void @llvm.lifetime.start.p0(i64 8, ptr %8) #12
  %13 = load ptr, ptr %5, align 8, !tbaa !7
  %14 = getelementptr inbounds nuw %struct.FLAC__StreamMetadata, ptr %13, i32 0, i32 3
  %15 = getelementptr inbounds nuw %struct.FLAC__StreamMetadata_CueSheet, ptr %14, i32 0, i32 4
  %16 = load ptr, ptr %15, align 8, !tbaa !16
  %17 = load i32, ptr %6, align 4, !tbaa !3
  %18 = zext i32 %17 to i64
  %19 = getelementptr inbounds nuw %struct.FLAC__StreamMetadata_CueSheet_Track, ptr %16, i64 %18
  store ptr %19, ptr %8, align 8, !tbaa !27
  %20 = load ptr, ptr %8, align 8, !tbaa !27
  %21 = getelementptr inbounds nuw %struct.FLAC__StreamMetadata_CueSheet_Track, ptr %20, i32 0, i32 5
  %22 = load ptr, ptr %21, align 8, !tbaa !33
  %23 = icmp eq ptr %22, null
  br i1 %23, label %24, label %37

24:                                               ; preds = %3
  %25 = load i32, ptr %7, align 4, !tbaa !3
  %26 = icmp eq i32 %25, 0
  br i1 %26, label %27, label %28

27:                                               ; preds = %24
  store i32 1, ptr %4, align 4
  store i32 1, ptr %9, align 4
  br label %102

28:                                               ; preds = %24
  %29 = load i32, ptr %7, align 4, !tbaa !3
  %30 = call ptr @cuesheet_track_index_array_new_(i32 noundef %29)
  %31 = load ptr, ptr %8, align 8, !tbaa !27
  %32 = getelementptr inbounds nuw %struct.FLAC__StreamMetadata_CueSheet_Track, ptr %31, i32 0, i32 5
  store ptr %30, ptr %32, align 8, !tbaa !33
  %33 = icmp eq ptr %30, null
  br i1 %33, label %34, label %35

34:                                               ; preds = %28
  store i32 0, ptr %4, align 4
  store i32 1, ptr %9, align 4
  br label %102

35:                                               ; preds = %28
  br label %36

36:                                               ; preds = %35
  br label %96

37:                                               ; preds = %3
  call void @llvm.lifetime.start.p0(i64 8, ptr %10) #12
  %38 = load ptr, ptr %8, align 8, !tbaa !27
  %39 = getelementptr inbounds nuw %struct.FLAC__StreamMetadata_CueSheet_Track, ptr %38, i32 0, i32 4
  %40 = load i8, ptr %39, align 1, !tbaa !23
  %41 = zext i8 %40 to i64
  %42 = mul i64 %41, 16
  store i64 %42, ptr %10, align 8, !tbaa !28
  call void @llvm.lifetime.start.p0(i64 8, ptr %11) #12
  %43 = load i32, ptr %7, align 4, !tbaa !3
  %44 = zext i32 %43 to i64
  %45 = mul i64 %44, 16
  store i64 %45, ptr %11, align 8, !tbaa !28
  %46 = load i32, ptr %7, align 4, !tbaa !3
  %47 = zext i32 %46 to i64
  %48 = icmp ugt i64 %47, 268435455
  br i1 %48, label %49, label %50

49:                                               ; preds = %37
  store i32 0, ptr %4, align 4
  store i32 1, ptr %9, align 4
  br label %93

50:                                               ; preds = %37
  %51 = load i64, ptr %11, align 8, !tbaa !28
  %52 = icmp eq i64 %51, 0
  br i1 %52, label %53, label %59

53:                                               ; preds = %50
  %54 = load ptr, ptr %8, align 8, !tbaa !27
  %55 = getelementptr inbounds nuw %struct.FLAC__StreamMetadata_CueSheet_Track, ptr %54, i32 0, i32 5
  %56 = load ptr, ptr %55, align 8, !tbaa !33
  call void @free(ptr noundef %56) #12
  %57 = load ptr, ptr %8, align 8, !tbaa !27
  %58 = getelementptr inbounds nuw %struct.FLAC__StreamMetadata_CueSheet_Track, ptr %57, i32 0, i32 5
  store ptr null, ptr %58, align 8, !tbaa !33
  br label %74

59:                                               ; preds = %50
  call void @llvm.lifetime.start.p0(i64 8, ptr %12) #12
  %60 = load ptr, ptr %8, align 8, !tbaa !27
  %61 = getelementptr inbounds nuw %struct.FLAC__StreamMetadata_CueSheet_Track, ptr %60, i32 0, i32 5
  %62 = load ptr, ptr %61, align 8, !tbaa !33
  %63 = load i64, ptr %11, align 8, !tbaa !28
  %64 = call ptr @realloc(ptr noundef %62, i64 noundef %63) #15
  store ptr %64, ptr %12, align 8, !tbaa !27
  %65 = icmp eq ptr %64, null
  br i1 %65, label %66, label %67

66:                                               ; preds = %59
  store i32 0, ptr %4, align 4
  store i32 1, ptr %9, align 4
  br label %71

67:                                               ; preds = %59
  %68 = load ptr, ptr %12, align 8, !tbaa !27
  %69 = load ptr, ptr %8, align 8, !tbaa !27
  %70 = getelementptr inbounds nuw %struct.FLAC__StreamMetadata_CueSheet_Track, ptr %69, i32 0, i32 5
  store ptr %68, ptr %70, align 8, !tbaa !33
  store i32 0, ptr %9, align 4
  br label %71

71:                                               ; preds = %67, %66
  call void @llvm.lifetime.end.p0(i64 8, ptr %12) #12
  %72 = load i32, ptr %9, align 4
  switch i32 %72, label %93 [
    i32 0, label %73
  ]

73:                                               ; preds = %71
  br label %74

74:                                               ; preds = %73, %53
  %75 = load i64, ptr %11, align 8, !tbaa !28
  %76 = load i64, ptr %10, align 8, !tbaa !28
  %77 = icmp ugt i64 %75, %76
  br i1 %77, label %78, label %92

78:                                               ; preds = %74
  %79 = load ptr, ptr %8, align 8, !tbaa !27
  %80 = getelementptr inbounds nuw %struct.FLAC__StreamMetadata_CueSheet_Track, ptr %79, i32 0, i32 5
  %81 = load ptr, ptr %80, align 8, !tbaa !33
  %82 = load ptr, ptr %8, align 8, !tbaa !27
  %83 = getelementptr inbounds nuw %struct.FLAC__StreamMetadata_CueSheet_Track, ptr %82, i32 0, i32 4
  %84 = load i8, ptr %83, align 1, !tbaa !23
  %85 = zext i8 %84 to i32
  %86 = sext i32 %85 to i64
  %87 = getelementptr inbounds %struct.FLAC__StreamMetadata_CueSheet_Index, ptr %81, i64 %86
  %88 = load i64, ptr %11, align 8, !tbaa !28
  %89 = load i64, ptr %10, align 8, !tbaa !28
  %90 = sub i64 %88, %89
  %91 = call ptr @memset.inline(ptr noundef %87, i32 noundef 0, i64 noundef %90) #12
  br label %92

92:                                               ; preds = %78, %74
  store i32 0, ptr %9, align 4
  br label %93

93:                                               ; preds = %92, %71, %49
  call void @llvm.lifetime.end.p0(i64 8, ptr %11) #12
  call void @llvm.lifetime.end.p0(i64 8, ptr %10) #12
  %94 = load i32, ptr %9, align 4
  switch i32 %94, label %102 [
    i32 0, label %95
  ]

95:                                               ; preds = %93
  br label %96

96:                                               ; preds = %95, %36
  %97 = load i32, ptr %7, align 4, !tbaa !3
  %98 = trunc i32 %97 to i8
  %99 = load ptr, ptr %8, align 8, !tbaa !27
  %100 = getelementptr inbounds nuw %struct.FLAC__StreamMetadata_CueSheet_Track, ptr %99, i32 0, i32 4
  store i8 %98, ptr %100, align 1, !tbaa !23
  %101 = load ptr, ptr %5, align 8, !tbaa !7
  call void @cuesheet_calculate_length_(ptr noundef %101)
  store i32 1, ptr %4, align 4
  store i32 1, ptr %9, align 4
  br label %102

102:                                              ; preds = %96, %93, %34, %27
  call void @llvm.lifetime.end.p0(i64 8, ptr %8) #12
  %103 = load i32, ptr %4, align 4
  ret i32 %103
}