; Function Attrs: nounwind sspstrong uwtable
define range(i32 0, 2) i32 @FLAC__metadata_object_cuesheet_track_resize_indices(ptr noundef captures(none) %0, i32 noundef %1, i32 noundef %2) local_unnamed_addr #0 {
  %4 = getelementptr inbounds nuw i8, ptr %0, i64 168
  %5 = load ptr, ptr %4, align 8, !tbaa !13
  %6 = zext i32 %1 to i64
  %7 = getelementptr inbounds nuw %struct.FLAC__StreamMetadata_CueSheet_Track, ptr %5, i64 %6
  %8 = getelementptr inbounds nuw i8, ptr %7, i64 24
  %9 = load ptr, ptr %8, align 8, !tbaa !21
  %10 = icmp eq ptr %9, null
  br i1 %10, label %11, label %17

11:                                               ; preds = %3
  %12 = icmp eq i32 %2, 0
  br i1 %12, label %.critedge35, label %13

13:                                               ; preds = %11
  %14 = zext i32 %2 to i64
  %15 = tail call noalias noundef ptr @calloc(i64 noundef range(i64 1, 4294967296) %14, i64 noundef 16) #28
  store ptr %15, ptr %8, align 8, !tbaa !21
  %16 = icmp eq ptr %15, null
  br i1 %16, label %.critedge35, label %.critedge

17:                                               ; preds = %3
  %18 = getelementptr inbounds nuw i8, ptr %7, i64 23
  %19 = load i8, ptr %18, align 1, !tbaa !24
  %20 = zext i8 %19 to i64
  %21 = shl nuw nsw i64 %20, 4
  %22 = zext i32 %2 to i64
  %23 = shl nuw nsw i64 %22, 4
  %24 = icmp ugt i32 %2, 268435455
  br i1 %24, label %.critedge35, label %25

25:                                               ; preds = %17
  %26 = icmp eq i32 %2, 0
  br i1 %26, label %27, label %28

27:                                               ; preds = %25
  tail call void @free(ptr noundef nonnull %9) #31
  br label %30

28:                                               ; preds = %25
  %29 = tail call ptr @realloc(ptr noundef nonnull %9, i64 noundef %23) #32
  %.not = icmp eq ptr %29, null
  br i1 %.not, label %.critedge35, label %30

30:                                               ; preds = %28, %27
  %31 = phi ptr [ null, %27 ], [ %29, %28 ]
  store ptr %31, ptr %8, align 8, !tbaa !21
  %32 = icmp samesign ugt i64 %23, %21
  br i1 %32, label %33, label %.critedge

33:                                               ; preds = %30
  %34 = load i8, ptr %18, align 1, !tbaa !24
  %35 = zext i8 %34 to i64
  %36 = getelementptr inbounds nuw %struct.FLAC__StreamMetadata_CueSheet_Index, ptr %31, i64 %35
  %37 = sub nuw nsw i64 %23, %21
  tail call void @llvm.memset.p0.i64(ptr noundef nonnull align 1 %36, i8 noundef 0, i64 noundef range(i64 -137438953438, 137438953441) %37, i1 noundef false) #31
  br label %.critedge

.critedge:                                        ; preds = %33, %30, %13
  %38 = trunc i32 %2 to i8
  %39 = getelementptr inbounds nuw i8, ptr %7, i64 23
  store i8 %38, ptr %39, align 1, !tbaa !24
  %40 = load i32, ptr @FLAC__STREAM_METADATA_CUESHEET_MEDIA_CATALOG_NUMBER_LEN, align 4, !tbaa !9
  %41 = load i32, ptr @FLAC__STREAM_METADATA_CUESHEET_LEAD_IN_LEN, align 4, !tbaa !9
  %42 = add i32 %41, %40
  %43 = load i32, ptr @FLAC__STREAM_METADATA_CUESHEET_IS_CD_LEN, align 4, !tbaa !9
  %44 = add i32 %42, %43
  %45 = load i32, ptr @FLAC__STREAM_METADATA_CUESHEET_RESERVED_LEN, align 4, !tbaa !9
  %46 = add i32 %44, %45
  %47 = load i32, ptr @FLAC__STREAM_METADATA_CUESHEET_NUM_TRACKS_LEN, align 4, !tbaa !9
  %48 = add i32 %46, %47
  %49 = lshr i32 %48, 3
  %50 = getelementptr inbounds nuw i8, ptr %0, i64 8
  %51 = getelementptr inbounds nuw i8, ptr %0, i64 164
  %52 = load i32, ptr %51, align 4, !tbaa !13
  %53 = load i32, ptr @FLAC__STREAM_METADATA_CUESHEET_TRACK_OFFSET_LEN, align 4, !tbaa !9
  %54 = load i32, ptr @FLAC__STREAM_METADATA_CUESHEET_TRACK_NUMBER_LEN, align 4, !tbaa !9
  %55 = add i32 %54, %53
  %56 = load i32, ptr @FLAC__STREAM_METADATA_CUESHEET_TRACK_ISRC_LEN, align 4, !tbaa !9
  %57 = add i32 %55, %56
  %58 = load i32, ptr @FLAC__STREAM_METADATA_CUESHEET_TRACK_TYPE_LEN, align 4, !tbaa !9
  %59 = add i32 %57, %58
  %60 = load i32, ptr @FLAC__STREAM_METADATA_CUESHEET_TRACK_PRE_EMPHASIS_LEN, align 4, !tbaa !9
  %61 = add i32 %59, %60
  %62 = load i32, ptr @FLAC__STREAM_METADATA_CUESHEET_TRACK_RESERVED_LEN, align 4, !tbaa !9
  %63 = add i32 %61, %62
  %64 = load i32, ptr @FLAC__STREAM_METADATA_CUESHEET_TRACK_NUM_INDICES_LEN, align 4, !tbaa !9
  %65 = add i32 %63, %64
  %66 = mul i32 %65, %52
  %67 = lshr i32 %66, 3
  %68 = add nuw nsw i32 %67, %49
  store i32 %68, ptr %50, align 8, !tbaa !8
  %.not.i = icmp eq i32 %52, 0
  br i1 %.not.i, label %.critedge35, label %.lr.ph.i

.lr.ph.i:                                         ; preds = %.critedge
  %69 = load ptr, ptr %4, align 8, !tbaa !13
  %70 = load i32, ptr @FLAC__STREAM_METADATA_CUESHEET_INDEX_OFFSET_LEN, align 4, !tbaa !9
  %71 = load i32, ptr @FLAC__STREAM_METADATA_CUESHEET_INDEX_NUMBER_LEN, align 4, !tbaa !9
  %72 = add i32 %71, %70
  %73 = load i32, ptr @FLAC__STREAM_METADATA_CUESHEET_INDEX_RESERVED_LEN, align 4, !tbaa !9
  %74 = add i32 %72, %73
  %wide.trip.count.i = zext i32 %52 to i64
  br label %75

75:                                               ; preds = %75, %.lr.ph.i
  %indvars.iv.i = phi i64 [ 0, %.lr.ph.i ], [ %indvars.iv.next.i, %75 ]
  %76 = phi i32 [ %68, %.lr.ph.i ], [ %82, %75 ]
  %77 = getelementptr inbounds nuw %struct.FLAC__StreamMetadata_CueSheet_Track, ptr %69, i64 %indvars.iv.i, i32 4
  %78 = load i8, ptr %77, align 1, !tbaa !24
  %79 = zext i8 %78 to i32
  %80 = mul i32 %74, %79
  %81 = lshr i32 %80, 3
  %82 = add i32 %81, %76
  %indvars.iv.next.i = add nuw nsw i64 %indvars.iv.i, 1
  %exitcond.not.i = icmp eq i64 %indvars.iv.next.i, %wide.trip.count.i
  br i1 %exitcond.not.i, label %._crit_edge.i, label %75, !llvm.loop !95

._crit_edge.i:                                    ; preds = %75
  store i32 %82, ptr %50, align 8, !tbaa !8
  br label %.critedge35

.critedge35:                                      ; preds = %._crit_edge.i, %.critedge, %17, %28, %13, %11
  %.0 = phi i32 [ 1, %11 ], [ 0, %13 ], [ 0, %28 ], [ 0, %17 ], [ 1, %.critedge ], [ 1, %._crit_edge.i ]
  ret i32 %.0
}